; Function Attrs: mustprogress nofree norecurse nosync nounwind willreturn uwtable
define hidden void @_ZN7datalog3clp10get_answerEv(ptr noalias nocapture writeonly sret(%class.obj_ref) align 8 %agg.result, ptr nocapture noundef nonnull readonly align 8 dereferenceable(56) %this) unnamed_addr #9 align 2 {
entry:
  %m_imp = getelementptr inbounds i8, ptr %this, i64 48
  %0 = load ptr, ptr %m_imp, align 8
  tail call void @llvm.experimental.noalias.scope.decl(metadata !10)
  %m.i = getelementptr inbounds i8, ptr %0, i64 8
  %1 = load ptr, ptr %m.i, align 8, !noalias !10
  %m_true.i.i = getelementptr inbounds i8, ptr %1, i64 856
  %2 = load ptr, ptr %m_true.i.i, align 8, !noalias !10
  store ptr %2, ptr %agg.result, align 8, !alias.scope !10
  %m_manager.i.i = getelementptr inbounds i8, ptr %agg.result, i64 8
  store ptr %1, ptr %m_manager.i.i, align 8, !alias.scope !10
  %tobool.not.i.i.i = icmp eq ptr %2, null
  br i1 %tobool.not.i.i.i, label %_ZNK7datalog3clp3imp10get_answerEv.exit, label %_ZN11ast_manager7inc_refEP3ast.exit.i.i.i

_ZN11ast_manager7inc_refEP3ast.exit.i.i.i:        ; preds = %entry
  %m_ref_count.i.i.i.i.i = getelementptr inbounds i8, ptr %2, i64 8
  %3 = load i32, ptr %m_ref_count.i.i.i.i.i, align 4, !noalias !10
  %inc.i.i.i.i.i = add i32 %3, 1
  store i32 %inc.i.i.i.i.i, ptr %m_ref_count.i.i.i.i.i, align 4, !noalias !10
  br label %_ZNK7datalog3clp3imp10get_answerEv.exit

_ZNK7datalog3clp3imp10get_answerEv.exit:          ; preds = %entry, %_ZN11ast_manager7inc_refEP3ast.exit.i.i.i
  ret void
}